; Function Attrs: mustprogress nounwind uwtable
define dso_local void @_ZN15Sample_TileMeshD2Ev(ptr noundef nonnull align 8 dereferenceable(404) %0) unnamed_addr #0 align 2 personality ptr @__gxx_personality_v0 {
  store ptr getelementptr inbounds ({ [23 x ptr] }, ptr @_ZTV15Sample_TileMesh, i64 0, i32 0, i64 2), ptr %0, align 8
  %2 = getelementptr inbounds i8, ptr %0, i64 208
  %3 = load ptr, ptr %2, align 8
  %4 = icmp eq ptr %3, null
  br i1 %4, label %6, label %5

5:                                                ; preds = %1
  tail call void @_ZdaPv(ptr noundef nonnull %3) #13
  br label %6

6:                                                ; preds = %5, %1
  store ptr null, ptr %2, align 8
  %7 = getelementptr inbounds i8, ptr %0, i64 216
  %8 = load ptr, ptr %7, align 8
  invoke void @_Z17rcFreeHeightFieldP13rcHeightfield(ptr noundef %8)
          to label %.noexc unwind label %21

.noexc:                                           ; preds = %6
  store ptr null, ptr %7, align 8
  %9 = getelementptr inbounds i8, ptr %0, i64 224
  %10 = load ptr, ptr %9, align 8
  invoke void @_Z24rcFreeCompactHeightfieldP20rcCompactHeightfield(ptr noundef %10)
          to label %.noexc1 unwind label %21

.noexc1:                                          ; preds = %.noexc
  store ptr null, ptr %9, align 8
  %11 = getelementptr inbounds i8, ptr %0, i64 232
  %12 = load ptr, ptr %11, align 8
  invoke void @_Z16rcFreeContourSetP12rcContourSet(ptr noundef %12)
          to label %.noexc2 unwind label %21

.noexc2:                                          ; preds = %.noexc1
  store ptr null, ptr %11, align 8
  %13 = getelementptr inbounds i8, ptr %0, i64 240
  %14 = load ptr, ptr %13, align 8
  invoke void @_Z14rcFreePolyMeshP10rcPolyMesh(ptr noundef %14)
          to label %.noexc3 unwind label %21

.noexc3:                                          ; preds = %.noexc2
  store ptr null, ptr %13, align 8
  %15 = getelementptr inbounds i8, ptr %0, i64 248
  %16 = load ptr, ptr %15, align 8
  invoke void @_Z20rcFreePolyMeshDetailP16rcPolyMeshDetail(ptr noundef %16)
          to label %17 unwind label %21

17:                                               ; preds = %.noexc3
  store ptr null, ptr %15, align 8
  %18 = getelementptr inbounds i8, ptr %0, i64 16
  %19 = load ptr, ptr %18, align 8
  invoke void @_Z13dtFreeNavMeshP9dtNavMesh(ptr noundef %19)
          to label %20 unwind label %21

20:                                               ; preds = %17
  store ptr null, ptr %18, align 8
  tail call void @_ZN6SampleD2Ev(ptr noundef nonnull align 8 dereferenceable(200) %0) #12
  ret void

21:                                               ; preds = %.noexc3, %.noexc2, %.noexc1, %.noexc, %6, %17
  %22 = landingpad { ptr, i32 }
          catch ptr null
  %23 = extractvalue { ptr, i32 } %22, 0
  tail call void @__clang_call_terminate(ptr %23) #15
  unreachable
}